target datalayout = "e-m:e-p270:32:32-p271:32:32-p272:64:64-i64:64-i128:128-f80:128-n8:16:32:64-S128"
target triple = "x86_64-pc-linux-gnu"

%"class.std::__cxx11::basic_string" = type { %"struct.std::__cxx11::basic_string<char>::_Alloc_hider", i64, %union.anon }
%"struct.std::__cxx11::basic_string<char>::_Alloc_hider" = type { ptr }
%union.anon = type { i64, [8 x i8] }
%"struct.faiss::IndexFlatCodes" = type { %"struct.faiss::Index.base", i64, %"class.std::vector" }
%"struct.faiss::Index.base" = type <{ ptr, i32, [4 x i8], i64, i8, i8, [2 x i8], i32, float }>
%"class.std::vector" = type { %"struct.std::_Vector_base" }
%"struct.std::_Vector_base" = type { %"struct.std::_Vector_base<unsigned char, std::allocator<unsigned char>>::_Vector_impl" }
%"struct.std::_Vector_base<unsigned char, std::allocator<unsigned char>>::_Vector_impl" = type { %"struct.std::_Vector_base<unsigned char, std::allocator<unsigned char>>::_Vector_impl_data" }
%"struct.std::_Vector_base<unsigned char, std::allocator<unsigned char>>::_Vector_impl_data" = type { ptr, ptr, ptr }
%"struct.faiss::AdditiveQuantizer" = type <{ %"struct.faiss::Quantizer", i64, %"class.std::vector.0", %"class.std::vector.5", %"class.std::vector.0", i64, i64, i64, i8, i8, i8, [5 x i8], %"struct.faiss::IndexFlat1D", %"class.std::vector.5", i64, i32, float, float, [4 x i8] }>
%"struct.faiss::Quantizer" = type { ptr, i64, i64 }
%"class.std::vector.0" = type { %"struct.std::_Vector_base.1" }
%"struct.std::_Vector_base.1" = type { %"struct.std::_Vector_base<unsigned long, std::allocator<unsigned long>>::_Vector_impl" }
%"struct.std::_Vector_base<unsigned long, std::allocator<unsigned long>>::_Vector_impl" = type { %"struct.std::_Vector_base<unsigned long, std::allocator<unsigned long>>::_Vector_impl_data" }
%"struct.std::_Vector_base<unsigned long, std::allocator<unsigned long>>::_Vector_impl_data" = type { ptr, ptr, ptr }
%"struct.faiss::IndexFlat1D" = type { %"struct.faiss::IndexFlatL2", i8, %"class.std::vector.10" }
%"struct.faiss::IndexFlatL2" = type { %"struct.faiss::IndexFlat", %"class.std::vector.5" }
%"struct.faiss::IndexFlat" = type { %"struct.faiss::IndexFlatCodes" }
%"class.std::vector.10" = type { %"struct.std::_Vector_base.11" }
%"struct.std::_Vector_base.11" = type { %"struct.std::_Vector_base<long, std::allocator<long>>::_Vector_impl" }
%"struct.std::_Vector_base<long, std::allocator<long>>::_Vector_impl" = type { %"struct.std::_Vector_base<long, std::allocator<long>>::_Vector_impl_data" }
%"struct.std::_Vector_base<long, std::allocator<long>>::_Vector_impl_data" = type { ptr, ptr, ptr }
%"class.std::vector.5" = type { %"struct.std::_Vector_base.6" }
%"struct.std::_Vector_base.6" = type { %"struct.std::_Vector_base<float, std::allocator<float>>::_Vector_impl" }
%"struct.std::_Vector_base<float, std::allocator<float>>::_Vector_impl" = type { %"struct.std::_Vector_base<float, std::allocator<float>>::_Vector_impl_data" }
%"struct.std::_Vector_base<float, std::allocator<float>>::_Vector_impl_data" = type { ptr, ptr, ptr }
%"struct.faiss::Index" = type <{ ptr, i32, [4 x i8], i64, i8, i8, [2 x i8], i32, float, [4 x i8] }>
%"struct.faiss::AdditiveQuantizer.base" = type <{ %"struct.faiss::Quantizer", i64, %"class.std::vector.0", %"class.std::vector.5", %"class.std::vector.0", i64, i64, i64, i8, i8, i8, [5 x i8], %"struct.faiss::IndexFlat1D", %"class.std::vector.5", i64, i32, float, float }>
%"struct.faiss::LocalSearchQuantizer" = type <{ %"struct.faiss::AdditiveQuantizer.base", [4 x i8], i64, i64, i64, i64, i64, float, float, i64, i32, [4 x i8], i64, ptr, i8, [7 x i8] }>
%"struct.faiss::AdditiveCoarseQuantizer" = type { %"struct.faiss::Index.base", ptr, %"class.std::vector.5" }
%"struct.faiss::LocalSearchCoarseQuantizer" = type { %"struct.faiss::AdditiveCoarseQuantizer", %"struct.faiss::LocalSearchQuantizer" }

@.str = private unnamed_addr constant [19 x i8] c"Error: '%s' failed\00", align 1
@.str.2 = private unnamed_addr constant [122 x i8] c"generated/home/dtcxzyw/WorkSpace/Projects/compilers/llvm-opt-benchmark/bench/faiss/faiss/faiss/IndexAdditiveQuantizer.cpp\00", align 1
@_ZTIN5faiss14FaissExceptionE = external constant ptr
@_ZTVN5faiss5IndexE = external unnamed_addr constant { [24 x ptr] }, align 8
@.str.22 = private unnamed_addr constant [19 x i8] c"lsq.tot_bits <= 63\00", align 1
@__PRETTY_FUNCTION__._ZN5faiss26LocalSearchCoarseQuantizerC2EimmNS_10MetricTypeE = private unnamed_addr constant [95 x i8] c"faiss::LocalSearchCoarseQuantizer::LocalSearchCoarseQuantizer(int, size_t, size_t, MetricType)\00", align 1

; Function Attrs: mustprogress nounwind uwtable
define linkonce_odr void @_ZNSt15__new_allocatorIfEC2Ev(ptr noundef nonnull align 1 dereferenceable(1) %0) unnamed_addr #0 comdat align 2 {
  %2 = alloca ptr, align 8
  store ptr %0, ptr %2, align 8
  ret void
}

; Function Attrs: mustprogress nounwind uwtable
define linkonce_odr void @_ZNSt12_Vector_baseIfSaIfEE17_Vector_impl_dataC2Ev(ptr noundef nonnull align 8 dereferenceable(24) %0) unnamed_addr #0 comdat align 2 {
  %2 = alloca ptr, align 8
  store ptr %0, ptr %2, align 8
  %3 = load ptr, ptr %2, align 8
  %4 = getelementptr inbounds %"struct.std::_Vector_base<float, std::allocator<float>>::_Vector_impl_data", ptr %3, i32 0, i32 0
  store ptr null, ptr %4, align 8
  %5 = getelementptr inbounds %"struct.std::_Vector_base<float, std::allocator<float>>::_Vector_impl_data", ptr %3, i32 0, i32 1
  store ptr null, ptr %5, align 8
  %6 = getelementptr inbounds %"struct.std::_Vector_base<float, std::allocator<float>>::_Vector_impl_data", ptr %3, i32 0, i32 2
  store ptr null, ptr %6, align 8
  ret void
}

; Function Attrs: mustprogress nounwind uwtable
define linkonce_odr void @_ZNSaIfEC2Ev(ptr noundef nonnull align 1 dereferenceable(1) %0) unnamed_addr #0 comdat align 2 {
  %2 = alloca ptr, align 8
  store ptr %0, ptr %2, align 8
  %3 = load ptr, ptr %2, align 8
  call void @_ZNSt15__new_allocatorIfEC2Ev(ptr noundef nonnull align 1 dereferenceable(1) %3) #11
  ret void
}

; Function Attrs: mustprogress nounwind uwtable
define linkonce_odr void @_ZNSt12_Vector_baseIfSaIfEE12_Vector_implC2Ev(ptr noundef nonnull align 8 dereferenceable(24) %0) unnamed_addr #0 comdat align 2 {
  %2 = alloca ptr, align 8
  store ptr %0, ptr %2, align 8
  %3 = load ptr, ptr %2, align 8
  call void @_ZNSaIfEC2Ev(ptr noundef nonnull align 1 dereferenceable(1) %3) #11
  call void @_ZNSt12_Vector_baseIfSaIfEE17_Vector_impl_dataC2Ev(ptr noundef nonnull align 8 dereferenceable(24) %3) #11
  ret void
}

; Function Attrs: mustprogress nounwind uwtable
define linkonce_odr void @_ZNSt12_Vector_baseIfSaIfEEC2Ev(ptr noundef nonnull align 8 dereferenceable(24) %0) unnamed_addr #0 comdat align 2 {
  %2 = alloca ptr, align 8
  store ptr %0, ptr %2, align 8
  %3 = load ptr, ptr %2, align 8
  %4 = getelementptr inbounds %"struct.std::_Vector_base.6", ptr %3, i32 0, i32 0
  call void @_ZNSt12_Vector_baseIfSaIfEE12_Vector_implC2Ev(ptr noundef nonnull align 8 dereferenceable(24) %4) #11
  ret void
}

; Function Attrs: mustprogress nounwind uwtable
define linkonce_odr void @_ZNSt6vectorIfSaIfEEC2Ev(ptr noundef nonnull align 8 dereferenceable(24) %0) unnamed_addr #0 comdat align 2 {
  %2 = alloca ptr, align 8
  store ptr %0, ptr %2, align 8
  %3 = load ptr, ptr %2, align 8
  call void @_ZNSt12_Vector_baseIfSaIfEEC2Ev(ptr noundef nonnull align 8 dereferenceable(24) %3) #11
  ret void
}

; Function Attrs: mustprogress nounwind uwtable
define linkonce_odr void @_ZN5faiss5IndexC2ElNS_10MetricTypeE(ptr noundef nonnull align 8 dereferenceable(36) %0, i64 noundef %1, i32 noundef %2) unnamed_addr #0 comdat align 2 {
  %4 = alloca ptr, align 8
  %5 = alloca i64, align 8
  %6 = alloca i32, align 4
  store ptr %0, ptr %4, align 8
  store i64 %1, ptr %5, align 8
  store i32 %2, ptr %6, align 4
  %7 = load ptr, ptr %4, align 8
  store ptr getelementptr inbounds ({ [24 x ptr] }, ptr @_ZTVN5faiss5IndexE, i32 0, i32 0, i32 2), ptr %7, align 8
  %8 = getelementptr inbounds %"struct.faiss::Index", ptr %7, i32 0, i32 1
  %9 = load i64, ptr %5, align 8
  %10 = trunc i64 %9 to i32
  store i32 %10, ptr %8, align 8
  %11 = getelementptr inbounds %"struct.faiss::Index", ptr %7, i32 0, i32 3
  store i64 0, ptr %11, align 8
  %12 = getelementptr inbounds %"struct.faiss::Index", ptr %7, i32 0, i32 4
  store i8 0, ptr %12, align 8
  %13 = getelementptr inbounds %"struct.faiss::Index", ptr %7, i32 0, i32 5
  store i8 1, ptr %13, align 1
  %14 = getelementptr inbounds %"struct.faiss::Index", ptr %7, i32 0, i32 7
  %15 = load i32, ptr %6, align 4
  store i32 %15, ptr %14, align 4
  %16 = getelementptr inbounds %"struct.faiss::Index", ptr %7, i32 0, i32 8
  store float 0.000000e+00, ptr %16, align 8
  ret void
}

; Function Attrs: mustprogress uwtable
define void @_ZN5faiss23AdditiveCoarseQuantizerC2ElPNS_17AdditiveQuantizerENS_10MetricTypeE(ptr noundef nonnull align 8 dereferenceable(72) %0, i64 noundef %1, ptr noundef %2, i32 noundef %3) unnamed_addr #2 align 2 {
  %5 = alloca ptr, align 8
  %6 = alloca i64, align 8
  %7 = alloca ptr, align 8
  %8 = alloca i32, align 4
  store ptr %0, ptr %5, align 8
  store i64 %1, ptr %6, align 8
  store ptr %2, ptr %7, align 8
  store i32 %3, ptr %8, align 4
  %9 = load ptr, ptr %5, align 8
  %10 = load i64, ptr %6, align 8
  %11 = load i32, ptr %8, align 4
  call void @_ZN5faiss5IndexC2ElNS_10MetricTypeE(ptr noundef nonnull align 8 dereferenceable(36) %9, i64 noundef %10, i32 noundef %11)
  store ptr getelementptr inbounds ({ [24 x ptr] }, ptr @_ZTVN5faiss23AdditiveCoarseQuantizerE, i32 0, i32 0, i32 2), ptr %9, align 8
  %12 = getelementptr inbounds %"struct.faiss::AdditiveCoarseQuantizer", ptr %9, i32 0, i32 1
  %13 = load ptr, ptr %7, align 8
  store ptr %13, ptr %12, align 8
  %14 = getelementptr inbounds %"struct.faiss::AdditiveCoarseQuantizer", ptr %9, i32 0, i32 2
  call void @_ZNSt6vectorIfSaIfEEC2Ev(ptr noundef nonnull align 8 dereferenceable(24) %14) #11
  ret void
}

; Function Attrs: mustprogress uwtable
define void @_ZN5faiss26LocalSearchCoarseQuantizerC2EimmNS_10MetricTypeE(ptr noundef nonnull align 8 dereferenceable(472) %0, i32 noundef %1, i64 noundef %2, i64 noundef %3, i32 noundef %4) unnamed_addr #2 align 2 personality ptr @__gxx_personality_v0 {
  %6 = alloca ptr, align 8
  %7 = alloca i32, align 4
  %8 = alloca i64, align 8
  %9 = alloca i64, align 8
  %10 = alloca i32, align 4
  %11 = alloca ptr, align 8
  %12 = alloca i32, align 4
  %13 = alloca %"class.std::__cxx11::basic_string", align 8
  %14 = alloca i32, align 4
  store ptr %0, ptr %6, align 8
  store i32 %1, ptr %7, align 4
  store i64 %2, ptr %8, align 8
  store i64 %3, ptr %9, align 8
  store i32 %4, ptr %10, align 4
  %15 = load ptr, ptr %6, align 8
  store ptr getelementptr inbounds ({ [24 x ptr] }, ptr @_ZTVN5faiss26LocalSearchCoarseQuantizerE, i32 0, i32 0, i32 2), ptr %15, align 8
  %16 = load i32, ptr %7, align 4
  %17 = sext i32 %16 to i64
  %18 = getelementptr inbounds %"struct.faiss::LocalSearchCoarseQuantizer", ptr %15, i32 0, i32 1
  %19 = load i32, ptr %10, align 4
  call void @_ZN5faiss23AdditiveCoarseQuantizerC2ElPNS_17AdditiveQuantizerENS_10MetricTypeE(ptr noundef nonnull align 8 dereferenceable(72) %15, i64 noundef %17, ptr noundef %18, i32 noundef %19)
  store ptr getelementptr inbounds ({ [24 x ptr] }, ptr @_ZTVN5faiss26LocalSearchCoarseQuantizerE, i32 0, i32 0, i32 2), ptr %15, align 8
  %20 = getelementptr inbounds %"struct.faiss::LocalSearchCoarseQuantizer", ptr %15, i32 0, i32 1
  %21 = load i32, ptr %7, align 4
  %22 = sext i32 %21 to i64
  %23 = load i64, ptr %8, align 8
  %24 = load i64, ptr %9, align 8
  invoke void @_ZN5faiss20LocalSearchQuantizerC1EmmmNS_17AdditiveQuantizer13Search_type_tE(ptr noundef nonnull align 8 dereferenceable(393) %20, i64 noundef %22, i64 noundef %23, i64 noundef %24, i32 noundef 0)
          to label %25 unwind label %44

25:                                               ; preds = %5
  br label %26

26:                                               ; preds = %25
  %27 = getelementptr inbounds %"struct.faiss::LocalSearchCoarseQuantizer", ptr %15, i32 0, i32 1
  %28 = getelementptr inbounds %"struct.faiss::AdditiveQuantizer", ptr %27, i32 0, i32 5
  %29 = load i64, ptr %28, align 8
  %30 = icmp ule i64 %29, 63
  br i1 %30, label %59, label %31

31:                                               ; preds = %26
  br label %32

32:                                               ; preds = %31
  call void @_ZNSt7__cxx1112basic_stringIcSt11char_traitsIcESaIcEEC1Ev(ptr noundef nonnull align 8 dereferenceable(32) %13) #11
  %33 = call i32 (ptr, i64, ptr, ...) @snprintf(ptr noundef null, i64 noundef 0, ptr noundef @.str, ptr noundef @.str.22) #11
  store i32 %33, ptr %14, align 4
  %34 = load i32, ptr %14, align 4
  %35 = add nsw i32 %34, 1
  %36 = sext i32 %35 to i64
  invoke void @_ZNSt7__cxx1112basic_stringIcSt11char_traitsIcESaIcEE6resizeEm(ptr noundef nonnull align 8 dereferenceable(32) %13, i64 noundef %36)
          to label %37 unwind label %48

37:                                               ; preds = %32
  %38 = invoke noundef nonnull align 1 dereferenceable(1) ptr @_ZNSt7__cxx1112basic_stringIcSt11char_traitsIcESaIcEEixEm(ptr noundef nonnull align 8 dereferenceable(32) %13, i64 noundef 0)
          to label %39 unwind label %48

39:                                               ; preds = %37
  %40 = call noundef i64 @_ZNKSt7__cxx1112basic_stringIcSt11char_traitsIcESaIcEE4sizeEv(ptr noundef nonnull align 8 dereferenceable(32) %13) #11
  %41 = call i32 (ptr, i64, ptr, ...) @snprintf(ptr noundef %38, i64 noundef %40, ptr noundef @.str, ptr noundef @.str.22) #11
  %42 = call ptr @__cxa_allocate_exception(i64 40) #11
  invoke void @_ZN5faiss14FaissExceptionC1ERKNSt7__cxx1112basic_stringIcSt11char_traitsIcESaIcEEEPKcSA_i(ptr noundef nonnull align 8 dereferenceable(40) %42, ptr noundef nonnull align 8 dereferenceable(32) %13, ptr noundef @__PRETTY_FUNCTION__._ZN5faiss26LocalSearchCoarseQuantizerC2EimmNS_10MetricTypeE, ptr noundef @.str.2, i32 noundef 626)
          to label %43 unwind label %52

43:                                               ; preds = %39
  invoke void @__cxa_throw(ptr %42, ptr @_ZTIN5faiss14FaissExceptionE, ptr @_ZN5faiss14FaissExceptionD2Ev) #15
          to label %69 unwind label %48

44:                                               ; preds = %5
  %45 = landingpad { ptr, i32 }
          cleanup
  %46 = extractvalue { ptr, i32 } %45, 0
  store ptr %46, ptr %11, align 8
  %47 = extractvalue { ptr, i32 } %45, 1
  store i32 %47, ptr %12, align 4
  br label %63

48:                                               ; preds = %43, %37, %32
  %49 = landingpad { ptr, i32 }
          cleanup
  %50 = extractvalue { ptr, i32 } %49, 0
  store ptr %50, ptr %11, align 8
  %51 = extractvalue { ptr, i32 } %49, 1
  store i32 %51, ptr %12, align 4
  br label %56

52:                                               ; preds = %39
  %53 = landingpad { ptr, i32 }
          cleanup
  %54 = extractvalue { ptr, i32 } %53, 0
  store ptr %54, ptr %11, align 8
  %55 = extractvalue { ptr, i32 } %53, 1
  store i32 %55, ptr %12, align 4
  call void @__cxa_free_exception(ptr %42) #11
  br label %56

56:                                               ; preds = %52, %48
  call void @_ZNSt7__cxx1112basic_stringIcSt11char_traitsIcESaIcEED1Ev(ptr noundef nonnull align 8 dereferenceable(32) %13) #11
  call void @_ZN5faiss20LocalSearchQuantizerD1Ev(ptr noundef nonnull align 8 dereferenceable(393) %20) #11
  br label %63

57:                                               ; No predecessors!
  br label %58

58:                                               ; preds = %57
  br label %59

59:                                               ; preds = %58, %26
  br label %60

60:                                               ; preds = %59
  br label %61

61:                                               ; preds = %60
  %62 = getelementptr inbounds %"struct.faiss::Index", ptr %15, i32 0, i32 5
  store i8 0, ptr %62, align 1
  ret void

63:                                               ; preds = %56, %44
  call void @_ZN5faiss23AdditiveCoarseQuantizerD2Ev(ptr noundef nonnull align 8 dereferenceable(72) %15) #11
  br label %64

64:                                               ; preds = %63
  %65 = load ptr, ptr %11, align 8
  %66 = load i32, ptr %12, align 4
  %67 = insertvalue { ptr, i32 } poison, ptr %65, 0
  %68 = insertvalue { ptr, i32 } %67, i32 %66, 1
  resume { ptr, i32 } %68

69:                                               ; preds = %43
  unreachable
}